; Function Attrs: mustprogress nounwind uwtable
define hidden noundef i32 @_ZN11DCmdFactory20register_DCmdFactoryEPS_(ptr noundef %0) local_unnamed_addr #2 align 2 {
  %2 = load ptr, ptr @DCmdFactory_lock, align 8
  %.not.i.i = icmp eq ptr %2, null
  br i1 %.not.i.i, label %_ZN11MutexLockerC2EP5MutexNS0_18SafepointCheckFlagE.exit, label %3

3:                                                ; preds = %1
  tail call void @_ZN5Mutex28lock_without_safepoint_checkEv(ptr noundef nonnull align 8 dereferenceable(104) %2) #19
  br label %_ZN11MutexLockerC2EP5MutexNS0_18SafepointCheckFlagE.exit

_ZN11MutexLockerC2EP5MutexNS0_18SafepointCheckFlagE.exit: ; preds = %1, %3
  %4 = load ptr, ptr @_ZN11DCmdFactory16_DCmdFactoryListE, align 8
  %5 = getelementptr inbounds i8, ptr %0, i64 8
  store ptr %4, ptr %5, align 8
  store ptr %0, ptr @_ZN11DCmdFactory16_DCmdFactoryListE, align 8
  %6 = load i8, ptr @_ZN11DCmdFactory22_send_jmx_notificationE, align 1
  %7 = trunc i8 %6 to i1
  br i1 %7, label %8, label %_ZN11DCmdFactory29push_jmx_notification_requestEv.exit

8:                                                ; preds = %_ZN11MutexLockerC2EP5MutexNS0_18SafepointCheckFlagE.exit
  %9 = getelementptr inbounds i8, ptr %0, i64 17
  %10 = load i8, ptr %9, align 1
  %11 = trunc i8 %10 to i1
  br i1 %11, label %_ZN11DCmdFactory29push_jmx_notification_requestEv.exit, label %12

12:                                               ; preds = %8
  %13 = getelementptr inbounds i8, ptr %0, i64 20
  %14 = load i32, ptr %13, align 4
  %15 = and i32 %14, 4
  %.not = icmp eq i32 %15, 0
  br i1 %.not, label %_ZN11DCmdFactory29push_jmx_notification_requestEv.exit, label %16

16:                                               ; preds = %12
  %17 = load ptr, ptr @Notification_lock, align 8
  %.not.i.i.i = icmp eq ptr %17, null
  br i1 %.not.i.i.i, label %_ZN11MutexLockerC2EP5MutexNS0_18SafepointCheckFlagE.exit.thread.i, label %18

_ZN11MutexLockerC2EP5MutexNS0_18SafepointCheckFlagE.exit.thread.i: ; preds = %16
  store i8 1, ptr @_ZN11DCmdFactory29_has_pending_jmx_notificationE, align 1
  tail call void @_ZN7Monitor10notify_allEv(ptr noundef nonnull align 8 dereferenceable(104) null) #19
  br label %_ZN11DCmdFactory29push_jmx_notification_requestEv.exit

18:                                               ; preds = %16
  tail call void @_ZN5Mutex28lock_without_safepoint_checkEv(ptr noundef nonnull align 8 dereferenceable(104) %17) #19
  store i8 1, ptr @_ZN11DCmdFactory29_has_pending_jmx_notificationE, align 1
  %19 = load ptr, ptr @Notification_lock, align 8
  tail call void @_ZN7Monitor10notify_allEv(ptr noundef nonnull align 8 dereferenceable(104) %19) #19
  tail call void @_ZN5Mutex6unlockEv(ptr noundef nonnull align 8 dereferenceable(104) %17) #19
  br label %_ZN11DCmdFactory29push_jmx_notification_requestEv.exit

_ZN11DCmdFactory29push_jmx_notification_requestEv.exit: ; preds = %18, %_ZN11MutexLockerC2EP5MutexNS0_18SafepointCheckFlagE.exit.thread.i, %12, %8, %_ZN11MutexLockerC2EP5MutexNS0_18SafepointCheckFlagE.exit
  br i1 %.not.i.i, label %_ZN11MutexLockerD2Ev.exit, label %20

20:                                               ; preds = %_ZN11DCmdFactory29push_jmx_notification_requestEv.exit
  tail call void @_ZN5Mutex6unlockEv(ptr noundef nonnull align 8 dereferenceable(104) %2) #19
  br label %_ZN11MutexLockerD2Ev.exit

_ZN11MutexLockerD2Ev.exit:                        ; preds = %_ZN11DCmdFactory29push_jmx_notification_requestEv.exit, %20
  ret i32 0
}